target datalayout = "e-m:e-p270:32:32-p271:32:32-p272:64:64-i64:64-i128:128-f80:128-n8:16:32:64-S128"
target triple = "x86_64-pc-linux-gnu"

%struct.buf_t = type { i32, ptr, i32, i32, i8, i8 }
%struct.stat = type { i64, i64, i64, i32, i32, i32, i32, i64, i64, i64, i64, %struct.timespec, %struct.timespec, %struct.timespec, [3 x i64] }
%struct.timespec = type { i64, i64 }

@.str = private unnamed_addr constant [41 x i8] c"%s: Buffer size limit exceeded (%u > %u)\00", align 1
@__func__.create_buf = private unnamed_addr constant [11 x i8] c"create_buf\00", align 1
@.str.1 = private unnamed_addr constant [7 x i8] c"pack.c\00", align 1
@.str.2 = private unnamed_addr constant [33 x i8] c"%s: Failed to open file `%s`, %m\00", align 1
@__func__.create_mmap_buf = private unnamed_addr constant [16 x i8] c"create_mmap_buf\00", align 1
@.str.3 = private unnamed_addr constant [34 x i8] c"%s: Failed to fstat file `%s`, %m\00", align 1
@.str.4 = private unnamed_addr constant [33 x i8] c"%s: Failed to mmap file `%s`, %m\00", align 1
@.str.5 = private unnamed_addr constant [30 x i8] c"%s: loaded file `%s` as buf_t\00", align 1

; Function Attrs: nounwind uwtable
define dso_local ptr @create_buf(ptr noundef %0, i32 noundef %1) #0 {
  %3 = alloca ptr, align 8
  %4 = alloca ptr, align 8
  %5 = alloca i32, align 4
  %6 = alloca ptr, align 8
  %7 = alloca i32, align 4
  store ptr %0, ptr %4, align 8
  store i32 %1, ptr %5, align 4
  call void @llvm.lifetime.start.p0(i64 8, ptr %6) #9
  %8 = load i32, ptr %5, align 4
  %9 = icmp ugt i32 %8, -65536
  br i1 %9, label %10, label %13

10:                                               ; preds = %2
  %11 = load i32, ptr %5, align 4
  %12 = call i32 (ptr, ...) @error(ptr noundef @.str, ptr noundef @__func__.create_buf, i32 noundef %11, i32 noundef -65536)
  store ptr null, ptr %3, align 8
  store i32 1, ptr %7, align 4
  br label %30

13:                                               ; preds = %2
  %14 = call ptr @slurm_xcalloc(i64 noundef 1, i64 noundef 32, i1 noundef zeroext true, i1 noundef zeroext false, ptr noundef @.str.1, i32 noundef 125, ptr noundef @__func__.create_buf)
  store ptr %14, ptr %6, align 8
  %15 = load ptr, ptr %6, align 8
  %16 = getelementptr inbounds nuw %struct.buf_t, ptr %15, i32 0, i32 0
  store i32 1112884549, ptr %16, align 8
  %17 = load i32, ptr %5, align 4
  %18 = load ptr, ptr %6, align 8
  %19 = getelementptr inbounds nuw %struct.buf_t, ptr %18, i32 0, i32 2
  store i32 %17, ptr %19, align 8
  %20 = load ptr, ptr %6, align 8
  %21 = getelementptr inbounds nuw %struct.buf_t, ptr %20, i32 0, i32 3
  store i32 0, ptr %21, align 4
  %22 = load ptr, ptr %4, align 8
  %23 = load ptr, ptr %6, align 8
  %24 = getelementptr inbounds nuw %struct.buf_t, ptr %23, i32 0, i32 1
  store ptr %22, ptr %24, align 8
  %25 = load ptr, ptr %6, align 8
  %26 = getelementptr inbounds nuw %struct.buf_t, ptr %25, i32 0, i32 4
  store i8 0, ptr %26, align 8
  %27 = load ptr, ptr %6, align 8
  %28 = getelementptr inbounds nuw %struct.buf_t, ptr %27, i32 0, i32 5
  store i8 0, ptr %28, align 1
  %29 = load ptr, ptr %6, align 8
  store ptr %29, ptr %3, align 8
  store i32 1, ptr %7, align 4
  br label %30

30:                                               ; preds = %13, %10
  call void @llvm.lifetime.end.p0(i64 8, ptr %6) #9
  %31 = load ptr, ptr %3, align 8
  ret ptr %31
}

; Function Attrs: nounwind uwtable
define dso_local ptr @create_mmap_buf(ptr noundef %0) #0 {
  %2 = alloca ptr, align 8
  %3 = alloca ptr, align 8
  %4 = alloca ptr, align 8
  %5 = alloca i32, align 4
  %6 = alloca %struct.stat, align 8
  %7 = alloca ptr, align 8
  %8 = alloca i32, align 4
  store ptr %0, ptr %3, align 8
  call void @llvm.lifetime.start.p0(i64 8, ptr %4) #9
  call void @llvm.lifetime.start.p0(i64 4, ptr %5) #9
  call void @llvm.lifetime.start.p0(i64 144, ptr %6) #9
  call void @llvm.lifetime.start.p0(i64 8, ptr %7) #9
  %9 = load ptr, ptr %3, align 8
  %10 = call i32 (ptr, i32, ...) @open(ptr noundef %9, i32 noundef 524288)
  store i32 %10, ptr %5, align 4
  %11 = icmp slt i32 %10, 0
  br i1 %11, label %12, label %24

12:                                               ; preds = %1
  br label %13

13:                                               ; preds = %12
  br label %14

14:                                               ; preds = %13
  %15 = call i32 @get_log_level()
  %16 = icmp sge i32 %15, 5
  br i1 %16, label %17, label %19

17:                                               ; preds = %14
  %18 = load ptr, ptr %3, align 8
  call void (i32, ptr, ...) @log_var(i32 noundef 5, ptr noundef @.str.2, ptr noundef @__func__.create_mmap_buf, ptr noundef %18)
  br label %19

19:                                               ; preds = %17, %14
  br label %20

20:                                               ; preds = %19
  br label %21

21:                                               ; preds = %20
  br label %22

22:                                               ; preds = %21
  br label %23

23:                                               ; preds = %22
  store ptr null, ptr %2, align 8
  store i32 1, ptr %8, align 4
  br label %87

24:                                               ; preds = %1
  %25 = load i32, ptr %5, align 4
  %26 = call i32 @fstat(i32 noundef %25, ptr noundef %6) #9
  %27 = icmp ne i32 %26, 0
  br i1 %27, label %28, label %42

28:                                               ; preds = %24
  br label %29

29:                                               ; preds = %28
  br label %30

30:                                               ; preds = %29
  %31 = call i32 @get_log_level()
  %32 = icmp sge i32 %31, 5
  br i1 %32, label %33, label %35

33:                                               ; preds = %30
  %34 = load ptr, ptr %3, align 8
  call void (i32, ptr, ...) @log_var(i32 noundef 5, ptr noundef @.str.3, ptr noundef @__func__.create_mmap_buf, ptr noundef %34)
  br label %35

35:                                               ; preds = %33, %30
  br label %36

36:                                               ; preds = %35
  br label %37

37:                                               ; preds = %36
  br label %38

38:                                               ; preds = %37
  br label %39

39:                                               ; preds = %38
  %40 = load i32, ptr %5, align 4
  %41 = call i32 @close(i32 noundef %40)
  store ptr null, ptr %2, align 8
  store i32 1, ptr %8, align 4
  br label %87

42:                                               ; preds = %24
  %43 = getelementptr inbounds nuw %struct.stat, ptr %6, i32 0, i32 8
  %44 = load i64, ptr %43, align 8
  %45 = load i32, ptr %5, align 4
  %46 = call ptr @mmap(ptr noundef null, i64 noundef %44, i32 noundef 1, i32 noundef 1, i32 noundef %45, i64 noundef 0) #9
  store ptr %46, ptr %7, align 8
  %47 = load i32, ptr %5, align 4
  %48 = call i32 @close(i32 noundef %47)
  %49 = load ptr, ptr %7, align 8
  %50 = icmp eq ptr %49, inttoptr (i64 -1 to ptr)
  br i1 %50, label %51, label %63

51:                                               ; preds = %42
  br label %52

52:                                               ; preds = %51
  br label %53

53:                                               ; preds = %52
  %54 = call i32 @get_log_level()
  %55 = icmp sge i32 %54, 5
  br i1 %55, label %56, label %58

56:                                               ; preds = %53
  %57 = load ptr, ptr %3, align 8
  call void (i32, ptr, ...) @log_var(i32 noundef 5, ptr noundef @.str.4, ptr noundef @__func__.create_mmap_buf, ptr noundef %57)
  br label %58

58:                                               ; preds = %56, %53
  br label %59

59:                                               ; preds = %58
  br label %60

60:                                               ; preds = %59
  br label %61

61:                                               ; preds = %60
  br label %62

62:                                               ; preds = %61
  store ptr null, ptr %2, align 8
  store i32 1, ptr %8, align 4
  br label %87

63:                                               ; preds = %42
  %64 = load ptr, ptr %7, align 8
  %65 = getelementptr inbounds nuw %struct.stat, ptr %6, i32 0, i32 8
  %66 = load i64, ptr %65, align 8
  %67 = trunc i64 %66 to i32
  %68 = call ptr @create_buf(ptr noundef %64, i32 noundef %67)
  store ptr %68, ptr %4, align 8
  %69 = load ptr, ptr %4, align 8
  %70 = icmp ne ptr %69, null
  br i1 %70, label %71, label %74

71:                                               ; preds = %63
  %72 = load ptr, ptr %4, align 8
  %73 = getelementptr inbounds nuw %struct.buf_t, ptr %72, i32 0, i32 4
  store i8 1, ptr %73, align 8
  br label %74

74:                                               ; preds = %71, %63
  br label %75

75:                                               ; preds = %74
  br label %76

76:                                               ; preds = %75
  %77 = call i32 @get_log_level()
  %78 = icmp sge i32 %77, 7
  br i1 %78, label %79, label %81

79:                                               ; preds = %76
  %80 = load ptr, ptr %3, align 8
  call void (i32, ptr, ...) @log_var(i32 noundef 7, ptr noundef @.str.5, ptr noundef @__func__.create_mmap_buf, ptr noundef %80)
  br label %81

81:                                               ; preds = %79, %76
  br label %82

82:                                               ; preds = %81
  br label %83

83:                                               ; preds = %82
  br label %84

84:                                               ; preds = %83
  br label %85

85:                                               ; preds = %84
  %86 = load ptr, ptr %4, align 8
  store ptr %86, ptr %2, align 8
  store i32 1, ptr %8, align 4
  br label %87

87:                                               ; preds = %85, %62, %39, %23
  call void @llvm.lifetime.end.p0(i64 8, ptr %7) #9
  call void @llvm.lifetime.end.p0(i64 144, ptr %6) #9
  call void @llvm.lifetime.end.p0(i64 4, ptr %5) #9
  call void @llvm.lifetime.end.p0(i64 8, ptr %4) #9
  %88 = load ptr, ptr %2, align 8
  ret ptr %88
}