; Function Attrs: nounwind uwtable
define dso_local noundef ptr @create_mmap_buf(ptr noundef %0) #0 {
  %2 = alloca %struct.stat, align 8
  call void @llvm.lifetime.start.p0(i64 144, ptr nonnull %2) #14
  %3 = tail call i32 (ptr, i32, ...) @open(ptr noundef %0, i32 noundef 524288) #14
  %4 = icmp slt i32 %3, 0
  br i1 %4, label %5, label %9

5:                                                ; preds = %1
  %6 = tail call i32 @get_log_level() #14
  %7 = icmp sgt i32 %6, 4
  br i1 %7, label %8, label %42

8:                                                ; preds = %5
  tail call void (i32, ptr, ...) @log_var(i32 noundef 5, ptr noundef nonnull @.str.2, ptr noundef nonnull @__func__.create_mmap_buf, ptr noundef %0) #14
  br label %42

9:                                                ; preds = %1
  %10 = call i32 @fstat(i32 noundef %3, ptr noundef nonnull %2) #14
  %.not = icmp eq i32 %10, 0
  br i1 %.not, label %17, label %11

11:                                               ; preds = %9
  %12 = tail call i32 @get_log_level() #14
  %13 = icmp sgt i32 %12, 4
  br i1 %13, label %14, label %15

14:                                               ; preds = %11
  tail call void (i32, ptr, ...) @log_var(i32 noundef 5, ptr noundef nonnull @.str.3, ptr noundef nonnull @__func__.create_mmap_buf, ptr noundef %0) #14
  br label %15

15:                                               ; preds = %14, %11
  %16 = tail call i32 @close(i32 noundef %3) #14
  br label %42

17:                                               ; preds = %9
  %18 = getelementptr inbounds nuw i8, ptr %2, i64 48
  %19 = load i64, ptr %18, align 8
  %20 = tail call ptr @mmap(ptr noundef null, i64 noundef %19, i32 noundef 1, i32 noundef 1, i32 noundef %3, i64 noundef 0) #14
  %21 = tail call i32 @close(i32 noundef %3) #14
  %22 = icmp eq ptr %20, inttoptr (i64 -1 to ptr)
  br i1 %22, label %23, label %27

23:                                               ; preds = %17
  %24 = tail call i32 @get_log_level() #14
  %25 = icmp sgt i32 %24, 4
  br i1 %25, label %26, label %42

26:                                               ; preds = %23
  tail call void (i32, ptr, ...) @log_var(i32 noundef 5, ptr noundef nonnull @.str.4, ptr noundef nonnull @__func__.create_mmap_buf, ptr noundef %0) #14
  br label %42

27:                                               ; preds = %17
  %28 = trunc i64 %19 to i32
  %29 = icmp ugt i32 %28, -65536
  br i1 %29, label %create_buf.exit.thread, label %31

create_buf.exit.thread:                           ; preds = %27
  %30 = tail call i32 (ptr, ...) @error(ptr noundef nonnull @.str, ptr noundef nonnull @__func__.create_buf, i32 noundef %28, i32 noundef -65536) #14
  br label %38

31:                                               ; preds = %27
  %32 = tail call ptr @slurm_xcalloc(i64 noundef 1, i64 noundef 32, i1 noundef zeroext true, i1 noundef zeroext false, ptr noundef nonnull @.str.1, i32 noundef 125, ptr noundef nonnull @__func__.create_buf) #14
  store i32 1112884549, ptr %32, align 8
  %33 = getelementptr inbounds nuw i8, ptr %32, i64 16
  store i32 %28, ptr %33, align 8
  %34 = getelementptr inbounds nuw i8, ptr %32, i64 20
  store i32 0, ptr %34, align 4
  %35 = getelementptr inbounds nuw i8, ptr %32, i64 8
  store ptr %20, ptr %35, align 8
  %36 = getelementptr inbounds nuw i8, ptr %32, i64 24
  %37 = getelementptr inbounds nuw i8, ptr %32, i64 25
  store i8 0, ptr %37, align 1
  store i8 1, ptr %36, align 8
  br label %38

38:                                               ; preds = %create_buf.exit.thread, %31
  %.0.i20 = phi ptr [ null, %create_buf.exit.thread ], [ %32, %31 ]
  %39 = tail call i32 @get_log_level() #14
  %40 = icmp sgt i32 %39, 6
  br i1 %40, label %41, label %42

41:                                               ; preds = %38
  tail call void (i32, ptr, ...) @log_var(i32 noundef 7, ptr noundef nonnull @.str.5, ptr noundef nonnull @__func__.create_mmap_buf, ptr noundef %0) #14
  br label %42

42:                                               ; preds = %38, %41, %23, %26, %5, %8, %15
  %.0 = phi ptr [ null, %15 ], [ null, %8 ], [ null, %5 ], [ null, %26 ], [ null, %23 ], [ %.0.i20, %41 ], [ %.0.i20, %38 ]
  call void @llvm.lifetime.end.p0(i64 144, ptr nonnull %2) #14
  ret ptr %.0
}